target datalayout = "e-m:e-p270:32:32-p271:32:32-p272:64:64-i64:64-i128:128-f80:128-n8:16:32:64-S128"
target triple = "x86_64-pc-linux-gnu"

%class.elapsedTimer = type <{ i64, i64, i8, [7 x i8] }>

; Function Attrs: mustprogress nounwind uwtable
define hidden void @_ZN12elapsedTimer15add_nanosecondsEl(ptr noundef nonnull align 8 dereferenceable(17) %0, i64 noundef %1) #1 align 2 {
  %3 = alloca ptr, align 8
  %4 = alloca i64, align 8
  %5 = alloca i64, align 8
  store ptr %0, ptr %3, align 8
  store i64 %1, ptr %4, align 8
  %6 = load ptr, ptr %3, align 8
  %7 = call noundef i64 @_ZN2os17elapsed_frequencyEv()
  %8 = sdiv i64 %7, 1000000000
  store i64 %8, ptr %5, align 8
  %9 = load i64, ptr %4, align 8
  %10 = load i64, ptr %5, align 8
  %11 = mul nsw i64 %9, %10
  %12 = getelementptr inbounds %class.elapsedTimer, ptr %6, i32 0, i32 0
  %13 = load i64, ptr %12, align 8
  %14 = add nsw i64 %13, %11
  store i64 %14, ptr %12, align 8
  ret void
}