; Function Attrs: mustprogress nounwind uwtable
define hidden void @_ZN12elapsedTimer15add_nanosecondsEl(ptr nocapture noundef nonnull align 8 dereferenceable(17) %0, i64 noundef %1) local_unnamed_addr #0 align 2 {
  %3 = tail call noundef i64 @_ZN2os17elapsed_frequencyEv() #6
  %4 = sdiv i64 %3, 1000000000
  %5 = mul nsw i64 %4, %1
  %6 = load i64, ptr %0, align 8
  %7 = add nsw i64 %5, %6
  store i64 %7, ptr %0, align 8
  ret void
}